target datalayout = "e-m:e-p270:32:32-p271:32:32-p272:64:64-i64:64-i128:128-f80:128-n8:16:32:64-S128"
target triple = "x86_64-pc-linux-gnu"

%struct.cli_bc_ctx = type { i8, i16, i32, ptr, ptr, i32, i32, ptr, ptr, ptr, i32, i32, i64, ptr, ptr, ptr, %struct.cli_bc_hooks, %struct.cli_exe_info, [64 x i32], [64 x i32], i32, ptr, ptr, i32, i32, i32, i32, ptr, i32, ptr, ptr, i32, i32, i32, i32, i32, i32, ptr, ptr, ptr, ptr, ptr, ptr, ptr, i32, i32, i32, i32, ptr, ptr, ptr, ptr, ptr, i32, i32, i32, i32, ptr, ptr, ptr, ptr, i32, i32, i32, ptr, i32, ptr, i32, i32, ptr, i32 }
%struct.cli_bc_hooks = type { ptr, ptr, ptr, ptr, ptr }
%struct.cli_exe_info = type { ptr, i32, i32, i16, i32, i32, %struct.cli_hashset, i32, i32, i32, i32, i32, i32, i32, i32, i32, %struct.pe_image_file_hdr, %union.anon, [16 x %struct.pe_image_data_dir] }
%struct.cli_hashset = type { ptr, ptr, ptr, i32, i32, i32, i32 }
%struct.pe_image_file_hdr = type { i32, i16, i16, i32, i32, i32, i16, i16 }
%union.anon = type { %struct.pe_image_optional_hdr64 }
%struct.pe_image_optional_hdr64 = type { i16, i8, i8, i32, i32, i32, i32, i32, i64, i32, i32, i16, i16, i16, i16, i16, i16, i32, i32, i32, i32, i16, i16, i64, i64, i64, i64, i32, i32 }
%struct.pe_image_data_dir = type { i32, i32 }
%struct.bc_inflate = type { %struct.z_stream_s, i32, i32, i8 }
%struct.z_stream_s = type { ptr, i32, i64, ptr, i32, i64, ptr, ptr, ptr, ptr, ptr, i32, i64, i64 }

@.str.59 = private unnamed_addr constant [30 x i8] c"bytecode api: inflateEnd: %s\0A\00", align 1

; Function Attrs: nounwind uwtable
define internal ptr @get_inflate(ptr noundef %0, i32 noundef %1) #0 {
  %3 = alloca ptr, align 8
  %4 = alloca ptr, align 8
  %5 = alloca i32, align 4
  store ptr %0, ptr %4, align 8
  store i32 %1, ptr %5, align 4
  %6 = load i32, ptr %5, align 4
  %7 = icmp slt i32 %6, 0
  br i1 %7, label %19, label %8

8:                                                ; preds = %2
  %9 = load i32, ptr %5, align 4
  %10 = load ptr, ptr %4, align 8
  %11 = getelementptr inbounds %struct.cli_bc_ctx, ptr %10, i32 0, i32 34
  %12 = load i32, ptr %11, align 4
  %13 = icmp uge i32 %9, %12
  br i1 %13, label %19, label %14

14:                                               ; preds = %8
  %15 = load ptr, ptr %4, align 8
  %16 = getelementptr inbounds %struct.cli_bc_ctx, ptr %15, i32 0, i32 49
  %17 = load ptr, ptr %16, align 8
  %18 = icmp ne ptr %17, null
  br i1 %18, label %20, label %19

19:                                               ; preds = %14, %8, %2
  store ptr null, ptr %3, align 8
  br label %27

20:                                               ; preds = %14
  %21 = load ptr, ptr %4, align 8
  %22 = getelementptr inbounds %struct.cli_bc_ctx, ptr %21, i32 0, i32 49
  %23 = load ptr, ptr %22, align 8
  %24 = load i32, ptr %5, align 4
  %25 = sext i32 %24 to i64
  %26 = getelementptr inbounds %struct.bc_inflate, ptr %23, i64 %25
  store ptr %26, ptr %3, align 8
  br label %27

27:                                               ; preds = %20, %19
  %28 = load ptr, ptr %3, align 8
  ret ptr %28
}

; Function Attrs: nounwind uwtable
define i32 @cli_bcapi_inflate_done(ptr noundef %0, i32 noundef %1) #0 {
  %3 = alloca i32, align 4
  %4 = alloca ptr, align 8
  %5 = alloca i32, align 4
  %6 = alloca i32, align 4
  %7 = alloca ptr, align 8
  store ptr %0, ptr %4, align 8
  store i32 %1, ptr %5, align 4
  %8 = load ptr, ptr %4, align 8
  %9 = load i32, ptr %5, align 4
  %10 = call ptr @get_inflate(ptr noundef %8, i32 noundef %9)
  store ptr %10, ptr %7, align 8
  %11 = load ptr, ptr %7, align 8
  %12 = icmp ne ptr %11, null
  br i1 %12, label %13, label %23

13:                                               ; preds = %2
  %14 = load ptr, ptr %7, align 8
  %15 = getelementptr inbounds %struct.bc_inflate, ptr %14, i32 0, i32 1
  %16 = load i32, ptr %15, align 8
  %17 = icmp eq i32 %16, -1
  br i1 %17, label %23, label %18

18:                                               ; preds = %13
  %19 = load ptr, ptr %7, align 8
  %20 = getelementptr inbounds %struct.bc_inflate, ptr %19, i32 0, i32 2
  %21 = load i32, ptr %20, align 4
  %22 = icmp eq i32 %21, -1
  br i1 %22, label %23, label %24

23:                                               ; preds = %18, %13, %2
  store i32 -1, ptr %3, align 4
  br label %41

24:                                               ; preds = %18
  %25 = load ptr, ptr %7, align 8
  %26 = getelementptr inbounds %struct.bc_inflate, ptr %25, i32 0, i32 0
  %27 = call i32 @inflateEnd(ptr noundef %26)
  store i32 %27, ptr %6, align 4
  %28 = load i32, ptr %6, align 4
  %29 = icmp eq i32 %28, -2
  br i1 %29, label %30, label %35

30:                                               ; preds = %24
  %31 = load ptr, ptr %7, align 8
  %32 = getelementptr inbounds %struct.bc_inflate, ptr %31, i32 0, i32 0
  %33 = getelementptr inbounds %struct.z_stream_s, ptr %32, i32 0, i32 6
  %34 = load ptr, ptr %33, align 8
  call void (ptr, ...) @cli_dbgmsg(ptr noundef @.str.59, ptr noundef %34)
  br label %35

35:                                               ; preds = %30, %24
  %36 = load ptr, ptr %7, align 8
  %37 = getelementptr inbounds %struct.bc_inflate, ptr %36, i32 0, i32 2
  store i32 -1, ptr %37, align 4
  %38 = load ptr, ptr %7, align 8
  %39 = getelementptr inbounds %struct.bc_inflate, ptr %38, i32 0, i32 1
  store i32 -1, ptr %39, align 8
  %40 = load i32, ptr %6, align 4
  store i32 %40, ptr %3, align 4
  br label %41

41:                                               ; preds = %35, %23
  %42 = load i32, ptr %3, align 4
  ret i32 %42
}