; Function Attrs: nounwind uwtable
define i32 @cli_bcapi_inflate_done(ptr nocapture noundef readonly %0, i32 noundef %1) local_unnamed_addr #1 {
  %3 = icmp slt i32 %1, 0
  br i1 %3, label %get_inflate.exit.thread, label %4

4:                                                ; preds = %2
  %5 = getelementptr inbounds i8, ptr %0, i64 1108
  %6 = load i32, ptr %5, align 4
  %.not.i = icmp ugt i32 %6, %1
  br i1 %.not.i, label %7, label %get_inflate.exit.thread

7:                                                ; preds = %4
  %8 = getelementptr inbounds i8, ptr %0, i64 1200
  %9 = load ptr, ptr %8, align 8
  %.not8.i = icmp eq ptr %9, null
  br i1 %.not8.i, label %get_inflate.exit.thread, label %get_inflate.exit

get_inflate.exit:                                 ; preds = %7
  %10 = zext nneg i32 %1 to i64
  %11 = getelementptr inbounds %struct.bc_inflate, ptr %9, i64 %10
  %12 = getelementptr inbounds i8, ptr %11, i64 112
  %13 = load i32, ptr %12, align 8
  %14 = icmp eq i32 %13, -1
  br i1 %14, label %get_inflate.exit.thread, label %15

15:                                               ; preds = %get_inflate.exit
  %16 = getelementptr inbounds i8, ptr %11, i64 116
  %17 = load i32, ptr %16, align 4
  %18 = icmp eq i32 %17, -1
  br i1 %18, label %get_inflate.exit.thread, label %19

19:                                               ; preds = %15
  %20 = tail call i32 @inflateEnd(ptr noundef nonnull %11) #29
  %21 = icmp eq i32 %20, -2
  br i1 %21, label %22, label %25

22:                                               ; preds = %19
  %23 = getelementptr inbounds i8, ptr %11, i64 48
  %24 = load ptr, ptr %23, align 8
  tail call void (ptr, ...) @cli_dbgmsg(ptr noundef nonnull @.str.59, ptr noundef %24) #29
  br label %25

25:                                               ; preds = %22, %19
  store i32 -1, ptr %16, align 4
  store i32 -1, ptr %12, align 8
  br label %get_inflate.exit.thread

get_inflate.exit.thread:                          ; preds = %2, %4, %7, %get_inflate.exit, %15, %25
  %.0 = phi i32 [ %20, %25 ], [ -1, %15 ], [ -1, %get_inflate.exit ], [ -1, %7 ], [ -1, %4 ], [ -1, %2 ]
  ret i32 %.0
}